target datalayout = "e-m:e-p270:32:32-p271:32:32-p272:64:64-i64:64-f80:128-n8:16:32:64-S128"
target triple = "x86_64-pc-linux-gnu"

@.str = private unnamed_addr constant [3 x i8] c"%d\00", align 1
@.str.1 = private unnamed_addr constant [6 x i8] c"%d %d\00", align 1
@.str.2 = private unnamed_addr constant [4 x i8] c"%d\0A\00", align 1

; Function Attrs: noinline nounwind uwtable
define dso_local i32 @main() #0 {
  %1 = alloca i32, align 4
  %2 = alloca i32, align 4
  %3 = alloca i32, align 4
  %4 = alloca i32, align 4
  %5 = alloca i32, align 4
  %6 = alloca i32, align 4
  %7 = alloca i32, align 4
  %8 = alloca [110 x [110 x i32]], align 16
  %9 = alloca i32, align 4
  store i32 0, i32* %1, align 4
  %10 = call i32 (i8*, ...) @__isoc99_scanf(i8* getelementptr inbounds ([3 x i8], [3 x i8]* @.str, i64 0, i64 0), i32* %5)
  store i32 0, i32* %2, align 4
  br label %11

11:                                               ; preds = %113, %0
  %12 = load i32, i32* %2, align 4
  %13 = load i32, i32* %5, align 4
  %14 = icmp slt i32 %12, %13
  br i1 %14, label %15, label %116

15:                                               ; preds = %11
  store i32 0, i32* %9, align 4
  %16 = call i32 (i8*, ...) @__isoc99_scanf(i8* getelementptr inbounds ([6 x i8], [6 x i8]* @.str.1, i64 0, i64 0), i32* %6, i32* %7)
  store i32 0, i32* %3, align 4
  br label %17

17:                                               ; preds = %40, %15
  %18 = load i32, i32* %3, align 4
  %19 = load i32, i32* %6, align 4
  %20 = icmp slt i32 %18, %19
  br i1 %20, label %21, label %43

21:                                               ; preds = %17
  store i32 0, i32* %4, align 4
  br label %22

22:                                               ; preds = %36, %21
  %23 = load i32, i32* %4, align 4
  %24 = load i32, i32* %7, align 4
  %25 = icmp slt i32 %23, %24
  br i1 %25, label %26, label %39

26:                                               ; preds = %22
  %27 = getelementptr inbounds [110 x [110 x i32]], [110 x [110 x i32]]* %8, i64 0, i64 0
  %28 = load i32, i32* %3, align 4
  %29 = sext i32 %28 to i64
  %30 = getelementptr inbounds [110 x i32], [110 x i32]* %27, i64 %29
  %31 = getelementptr inbounds [110 x i32], [110 x i32]* %30, i64 0, i64 0
  %32 = load i32, i32* %4, align 4
  %33 = sext i32 %32 to i64
  %34 = getelementptr inbounds i32, i32* %31, i64 %33
  %35 = call i32 (i8*, ...) @__isoc99_scanf(i8* getelementptr inbounds ([3 x i8], [3 x i8]* @.str, i64 0, i64 0), i32* %34)
  br label %36

36:                                               ; preds = %26
  %37 = load i32, i32* %4, align 4
  %38 = add nsw i32 %37, 1
  store i32 %38, i32* %4, align 4
  br label %22

39:                                               ; preds = %22
  br label %40

40:                                               ; preds = %39
  %41 = load i32, i32* %3, align 4
  %42 = add nsw i32 %41, 1
  store i32 %42, i32* %3, align 4
  br label %17

43:                                               ; preds = %17
  store i32 0, i32* %3, align 4
  br label %44

44:                                               ; preds = %73, %43
  %45 = load i32, i32* %3, align 4
  %46 = load i32, i32* %7, align 4
  %47 = icmp slt i32 %45, %46
  br i1 %47, label %48, label %76

48:                                               ; preds = %44
  %49 = getelementptr inbounds [110 x [110 x i32]], [110 x [110 x i32]]* %8, i64 0, i64 0
  %50 = getelementptr inbounds [110 x i32], [110 x i32]* %49, i64 0, i64 0
  %51 = load i32, i32* %3, align 4
  %52 = sext i32 %51 to i64
  %53 = getelementptr inbounds i32, i32* %50, i64 %52
  %54 = load i32, i32* %53, align 4
  %55 = load i32, i32* %9, align 4
  %56 = add nsw i32 %55, %54
  store i32 %56, i32* %9, align 4
  %57 = load i32, i32* %6, align 4
  %58 = icmp ne i32 %57, 1
  br i1 %58, label %59, label %72

59:                                               ; preds = %48
  %60 = getelementptr inbounds [110 x [110 x i32]], [110 x [110 x i32]]* %8, i64 0, i64 0
  %61 = load i32, i32* %6, align 4
  %62 = sext i32 %61 to i64
  %63 = getelementptr inbounds [110 x i32], [110 x i32]* %60, i64 %62
  %64 = getelementptr inbounds [110 x i32], [110 x i32]* %63, i64 -1
  %65 = getelementptr inbounds [110 x i32], [110 x i32]* %64, i64 0, i64 0
  %66 = load i32, i32* %3, align 4
  %67 = sext i32 %66 to i64
  %68 = getelementptr inbounds i32, i32* %65, i64 %67
  %69 = load i32, i32* %68, align 4
  %70 = load i32, i32* %9, align 4
  %71 = add nsw i32 %70, %69
  store i32 %71, i32* %9, align 4
  br label %72

72:                                               ; preds = %59, %48
  br label %73

73:                                               ; preds = %72
  %74 = load i32, i32* %3, align 4
  %75 = add nsw i32 %74, 1
  store i32 %75, i32* %3, align 4
  br label %44

76:                                               ; preds = %44
  store i32 1, i32* %3, align 4
  br label %77

77:                                               ; preds = %107, %76
  %78 = load i32, i32* %3, align 4
  %79 = load i32, i32* %6, align 4
  %80 = sub nsw i32 %79, 1
  %81 = icmp slt i32 %78, %80
  br i1 %81, label %82, label %110

82:                                               ; preds = %77
  %83 = getelementptr inbounds [110 x [110 x i32]], [110 x [110 x i32]]* %8, i64 0, i64 0
  %84 = load i32, i32* %3, align 4
  %85 = sext i32 %84 to i64
  %86 = getelementptr inbounds [110 x i32], [110 x i32]* %83, i64 %85
  %87 = getelementptr inbounds [110 x i32], [110 x i32]* %86, i64 0, i64 0
  %88 = load i32, i32* %87, align 4
  %89 = load i32, i32* %9, align 4
  %90 = add nsw i32 %89, %88
  store i32 %90, i32* %9, align 4
  %91 = load i32, i32* %7, align 4
  %92 = icmp ne i32 %91, 1
  br i1 %92, label %93, label %106

93:                                               ; preds = %82
  %94 = getelementptr inbounds [110 x [110 x i32]], [110 x [110 x i32]]* %8, i64 0, i64 0
  %95 = load i32, i32* %3, align 4
  %96 = sext i32 %95 to i64
  %97 = getelementptr inbounds [110 x i32], [110 x i32]* %94, i64 %96
  %98 = getelementptr inbounds [110 x i32], [110 x i32]* %97, i64 0, i64 0
  %99 = load i32, i32* %7, align 4
  %100 = sext i32 %99 to i64
  %101 = getelementptr inbounds i32, i32* %98, i64 %100
  %102 = getelementptr inbounds i32, i32* %101, i64 -1
  %103 = load i32, i32* %102, align 4
  %104 = load i32, i32* %9, align 4
  %105 = add nsw i32 %104, %103
  store i32 %105, i32* %9, align 4
  br label %106

106:                                              ; preds = %93, %82
  br label %107

107:                                              ; preds = %106
  %108 = load i32, i32* %3, align 4
  %109 = add nsw i32 %108, 1
  store i32 %109, i32* %3, align 4
  br label %77

110:                                              ; preds = %77
  %111 = load i32, i32* %9, align 4
  %112 = call i32 (i8*, ...) @printf(i8* getelementptr inbounds ([4 x i8], [4 x i8]* @.str.2, i64 0, i64 0), i32 %111)
  br label %113

113:                                              ; preds = %110
  %114 = load i32, i32* %2, align 4
  %115 = add nsw i32 %114, 1
  store i32 %115, i32* %2, align 4
  br label %11

116:                                              ; preds = %11
  ret i32 0
}